; Function Attrs: nounwind uwtable
define void @dt_bauhaus_combobox_entry_set_sensitive(ptr noundef %0, i32 noundef %1, i32 noundef %2) local_unnamed_addr #0 {
  %4 = load atomic i64, ptr @dt_bh_get_type.static_g_define_type_id seq_cst, align 8
  %.not.i.i.i = icmp eq i64 %4, 0
  br i1 %.not.i.i.i, label %5, label %DT_BAUHAUS_WIDGET.exit.i

5:                                                ; preds = %3
  %6 = tail call i32 @g_once_init_enter(ptr noundef nonnull @dt_bh_get_type.static_g_define_type_id) #19
  %.not4.i.i.i = icmp eq i32 %6, 0
  br i1 %.not4.i.i.i, label %DT_BAUHAUS_WIDGET.exit.i, label %7

7:                                                ; preds = %5
  %8 = tail call fastcc i64 @dt_bh_get_type_once()
  tail call void @g_once_init_leave(ptr noundef nonnull @dt_bh_get_type.static_g_define_type_id, i64 noundef %8) #19
  br label %DT_BAUHAUS_WIDGET.exit.i

DT_BAUHAUS_WIDGET.exit.i:                         ; preds = %7, %5, %3
  %9 = load i64, ptr @dt_bh_get_type.static_g_define_type_id, align 8, !tbaa !6
  %10 = tail call ptr @g_type_check_instance_cast(ptr noundef %0, i64 noundef %9) #19
  %11 = getelementptr inbounds nuw i8, ptr %10, i64 40
  %12 = load i32, ptr %11, align 8, !tbaa !105
  %.not.i = icmp eq i32 %12, 2
  br i1 %.not.i, label %13, label %_combobox_data.exit.thread

13:                                               ; preds = %DT_BAUHAUS_WIDGET.exit.i
  %14 = getelementptr inbounds nuw i8, ptr %10, i64 408
  %15 = load i32, ptr %14, align 8, !tbaa !137
  %16 = getelementptr inbounds nuw i8, ptr %10, i64 440
  %17 = load ptr, ptr %16, align 8, !tbaa !128
  %18 = getelementptr inbounds nuw i8, ptr %17, i64 8
  %19 = load i32, ptr %18, align 8, !tbaa !131
  %.not8.i = icmp ult i32 %15, %19
  br i1 %.not8.i, label %_combobox_data.exit, label %20

20:                                               ; preds = %13
  store i32 -1, ptr %14, align 8, !tbaa !137
  br label %_combobox_data.exit

_combobox_data.exit:                              ; preds = %13, %20
  %21 = icmp sgt i32 %1, -1
  %.not = icmp ult i32 %1, %19
  %or.cond = and i1 %21, %.not
  br i1 %or.cond, label %22, label %_combobox_data.exit.thread

22:                                               ; preds = %_combobox_data.exit
  %.val.val = load ptr, ptr %17, align 8, !tbaa !133
  %23 = zext nneg i32 %1 to i64
  %24 = getelementptr inbounds nuw ptr, ptr %.val.val, i64 %23
  %25 = load ptr, ptr %24, align 8, !tbaa !134
  %26 = getelementptr inbounds nuw i8, ptr %25, i64 12
  store i32 %2, ptr %26, align 4, !tbaa !135
  br label %_combobox_data.exit.thread

_combobox_data.exit.thread:                       ; preds = %DT_BAUHAUS_WIDGET.exit.i, %_combobox_data.exit, %22
  ret void
}